_ZN7android10getServiceINS_13ISensorServerEEEiRKNS_8String16EPNS_2spIT_EE
_ZN7android10getServiceINS_16ISensorHubServerEEEiRKNS_8String16EPNS_2spIT_EE
_ZN7android10getServiceINS_16ISurfaceComposerEEEiRKNS_8String16EPNS_2spIT_EE
_ZN7android11BnInterfaceINS_13ISensorServerEE10onAsBinderEv
_ZN7android11BnInterfaceINS_15ISurfaceTextureEE10onAsBinderEv
_ZN7android11BnInterfaceINS_16ISensorHubServerEE10onAsBinderEv
_ZN7android11BnInterfaceINS_16ISurfaceComposerEE10onAsBinderEv
_ZN7android11BnInterfaceINS_19IGraphicBufferAllocEE10onAsBinderEv
_ZN7android11BnInterfaceINS_22ISensorEventConnectionEE10onAsBinderEv
_ZN7android11BnInterfaceINS_22ISurfaceComposerClientEE10onAsBinderEv
_ZN7android11BnInterfaceINS_23IDisplayEventConnectionEE10onAsBinderEv
_ZN7android11BnInterfaceINS_25ISensorHubEventConnectionEE10onAsBinderEv
_ZN7android11BnInterfaceINS_8ISurfaceEE10onAsBinderEv
_ZN7android11BufferQueue11queueBufferEiRKNS_15ISurfaceTexture16QueueBufferInputEPNS1_17QueueBufferOutputE
_ZN7android11BufferQueue13requestBufferEiPNS_2spINS_13GraphicBufferEEE
_ZN7android11BufferQueue15setConsumerNameERKNS_7String8E
_ZN7android11BufferQueue7connectEiPNS_15ISurfaceTexture17QueueBufferOutputE
_ZN7android13ISensorServer11asInterfaceERKNS_2spINS_7IBinderEEE
_ZN7android14SurfaceTexture11createImageEPvRKNS_2spINS_13GraphicBufferEEE
_ZN7android14SurfaceTexture12getTimestampEv
_ZN7android14SurfaceTexture14updateTexImageEPNS0_14BufferRejecterE
_ZN7android14SurfaceTexture14updateTexImageEv
_ZN7android14SurfaceTexture15attachToContextEj
_ZN7android14SurfaceTexture16freeBufferLockedEi
_ZN7android14SurfaceTexture16isExternalFormatEj
_ZN7android14SurfaceTexture16onFrameAvailableEv
_ZN7android14SurfaceTexture16setTransformHintEj
_ZN7android14SurfaceTexture17detachFromContextEv
_ZN7android14SurfaceTexture17onBuffersReleasedEv
_ZN7android14SurfaceTexture18getTransformMatrixEPf
_ZN7android14SurfaceTexture18setSynchronousModeEb
_ZN7android14SurfaceTexture19setFilteringEnabledEb
_ZN7android14SurfaceTexture20setBufferCountServerEi
_ZN7android14SurfaceTexture20setConsumerUsageBitsEj
_ZN7android14SurfaceTexture20setDefaultBufferSizeEjj
_ZN7android14SurfaceTexture20syncForReleaseLockedEPv
_ZN7android14SurfaceTexture22setDefaultBufferFormatEj
_ZN7android14SurfaceTexture25setFrameAvailableListenerERKNS_2spINS0_22FrameAvailableListenerEEE
_ZN7android14SurfaceTexture29computeCurrentTransformMatrixEv
_ZN7android14SurfaceTexture7abandonEv
_ZN7android14SurfaceTexture7setNameERKNS_7String8E
_ZN7android14SurfaceTextureC1EjbjbRKNS_2spINS_11BufferQueueEEE
_ZN7android14SurfaceTextureC2EjbjbRKNS_2spINS_11BufferQueueEEE
_ZN7android14SurfaceTextureD0Ev
_ZN7android14SurfaceTextureD1Ev
_ZN7android14SurfaceTextureD2Ev
_ZN7android15ISurfaceTexture10descriptorE
_ZN7android15ISurfaceTexture11asInterfaceERKNS_2spINS_7IBinderEEE
_ZN7android15ISurfaceTextureC1Ev
_ZN7android15ISurfaceTextureC2Ev
_ZN7android15ISurfaceTextureD0Ev
_ZN7android15ISurfaceTextureD1Ev
_ZN7android15ISurfaceTextureD2Ev
_ZN7android16BnSurfaceTexture10onTransactEjRKNS_6ParcelEPS1_j
_ZN7android16BnSurfaceTexture18flipExtDisplayFlagEi
_ZN7android16ISensorHubServer11asInterfaceERKNS_2spINS_7IBinderEEE
_ZN7android16ISurfaceComposer11asInterfaceERKNS_2spINS_7IBinderEEE
_ZN7android19IGraphicBufferAlloc10descriptorE
_ZN7android19IGraphicBufferAlloc11asInterfaceERKNS_2spINS_7IBinderEEE
_ZN7android19IGraphicBufferAllocC1Ev
_ZN7android19IGraphicBufferAllocC2Ev
_ZN7android19IGraphicBufferAllocD0Ev
_ZN7android19IGraphicBufferAllocD1Ev
_ZN7android19IGraphicBufferAllocD2Ev
_ZN7android20BnGraphicBufferAlloc10onTransactEjRKNS_6ParcelEPS1_j
_ZN7android20SurfaceTextureClient10disconnectEi
_ZN7android20SurfaceTextureClient10hook_queryEPK13ANativeWindowiPi
_ZN7android20SurfaceTextureClient10lockBufferEP19ANativeWindowBuffer
_ZN7android20SurfaceTextureClient11queueBufferEP19ANativeWindowBuffer
_ZN7android20SurfaceTextureClient12cancelBufferEP19ANativeWindowBuffer
_ZN7android20SurfaceTextureClient12dispatchLockESt9__va_list
_ZN7android20SurfaceTextureClient12hook_performEP13ANativeWindowiz
_ZN7android20SurfaceTextureClient13dequeueBufferEPP19ANativeWindowBuffer
_ZN7android20SurfaceTextureClient13unlockAndPostEv
_ZN7android20SurfaceTextureClient14freeAllBuffersEv
_ZN7android20SurfaceTextureClient14setBufferCountEi
_ZN7android20SurfaceTextureClient14setScalingModeEi
_ZN7android20SurfaceTextureClient15dispatchConnectESt9__va_list
_ZN7android20SurfaceTextureClient15dispatchSetCropESt9__va_list
_ZN7android20SurfaceTextureClient15hook_lockBufferEP13ANativeWindowP19ANativeWindowBuffer
_ZN7android20SurfaceTextureClient15setSwapIntervalEi
_ZN7android20SurfaceTextureClient16dispatchSetUsageESt9__va_list
_ZN7android20SurfaceTextureClient16hook_queueBufferEP13ANativeWindowP19ANativeWindowBuffer
_ZN7android20SurfaceTextureClient16setBuffersFormatEi
_ZN7android20SurfaceTextureClient17hook_cancelBufferEP13ANativeWindowP19ANativeWindowBuffer
_ZN7android20SurfaceTextureClient18dispatchDisconnectESt9__va_list
_ZN7android20SurfaceTextureClient18flipExtDisplayFlagEi
_ZN7android20SurfaceTextureClient18hook_dequeueBufferEP13ANativeWindowPP19ANativeWindowBuffer
_ZN7android20SurfaceTextureClient18setISurfaceTextureERKNS_2spINS_15ISurfaceTextureEEE
_ZN7android20SurfaceTextureClient19setBuffersTimestampEx
_ZN7android20SurfaceTextureClient19setBuffersTransformEi
_ZN7android20SurfaceTextureClient20hook_setSwapIntervalEP13ANativeWindowi
_ZN7android20SurfaceTextureClient20setBuffersDimensionsEii
_ZN7android20SurfaceTextureClient21dispatchUnlockAndPostESt9__va_list
_ZN7android20SurfaceTextureClient22dispatchSetBufferCountESt9__va_list
_ZN7android20SurfaceTextureClient22dispatchSetScalingModeESt9__va_list
_ZN7android20SurfaceTextureClient24dispatchSetBuffersFormatESt9__va_list
_ZN7android20SurfaceTextureClient24setBuffersUserDimensionsEii
_ZN7android20SurfaceTextureClient26dispatchSetBuffersGeometryESt9__va_list
_ZN7android20SurfaceTextureClient27dispatchSetBuffersTimestampESt9__va_list
_ZN7android20SurfaceTextureClient27dispatchSetBuffersTransformESt9__va_list
_ZN7android20SurfaceTextureClient28dispatchSetBuffersDimensionsESt9__va_list
_ZN7android20SurfaceTextureClient32dispatchSetBuffersUserDimensionsESt9__va_list
_ZN7android20SurfaceTextureClient4initEv
_ZN7android20SurfaceTextureClient4lockEP20ANativeWindow_BufferP5ARect
_ZN7android20SurfaceTextureClient7connectEi
_ZN7android20SurfaceTextureClient7performEiSt9__va_list
_ZN7android20SurfaceTextureClient7setCropEPKNS_4RectE
_ZN7android20SurfaceTextureClient8setUsageEj
_ZN7android20SurfaceTextureClientC1ERKNS_2spINS_14SurfaceTextureEEE
_ZN7android20SurfaceTextureClientC1ERKNS_2spINS_15ISurfaceTextureEEE
_ZN7android20SurfaceTextureClientC1Ev
_ZN7android20SurfaceTextureClientC2ERKNS_2spINS_14SurfaceTextureEEE
_ZN7android20SurfaceTextureClientC2ERKNS_2spINS_15ISurfaceTextureEEE
_ZN7android20SurfaceTextureClientC2Ev
_ZN7android20SurfaceTextureClientD0Ev
_ZN7android20SurfaceTextureClientD1Ev
_ZN7android20SurfaceTextureClientD2Ev
_ZN7android21SurfaceComposerClient13createSurfaceERKNS_7String8Eijjij
_ZN7android21SurfaceComposerClient19linkToComposerDeathERKNS_2spINS_7IBinder14DeathRecipientEEEPvj
_ZN7android22ISensorEventConnection11asInterfaceERKNS_2spINS_7IBinderEEE
_ZN7android22ISurfaceComposerClient11asInterfaceERKNS_2spINS_7IBinderEEE
_ZN7android23IDisplayEventConnection11asInterfaceERKNS_2spINS_7IBinderEEE
_ZN7android25ISensorHubEventConnection11asInterfaceERKNS_2spINS_7IBinderEEE
_ZN7android2spINS_11IMemoryHeapEED1Ev
_ZN7android2spINS_11IMemoryHeapEED2Ev
_ZN7android2spINS_11IMemoryHeapEEaSEPS1_
_ZN7android2spINS_11IMemoryHeapEEaSERKS2_
_ZN7android2spINS_13GraphicBufferEED1Ev
_ZN7android2spINS_13GraphicBufferEED2Ev
_ZN7android2spINS_13GraphicBufferEEaSERKS2_
_ZN7android2spINS_14SurfaceTexture22FrameAvailableListenerEED1Ev
_ZN7android2spINS_14SurfaceTexture22FrameAvailableListenerEED2Ev
_ZN7android2spINS_14SurfaceTexture22FrameAvailableListenerEEaSERKS3_
_ZN7android2spINS_15ISurfaceTextureEED1Ev
_ZN7android2spINS_15ISurfaceTextureEED2Ev
_ZN7android2spINS_15ISurfaceTextureEEaSERKS2_
_ZN7android2spINS_19IGraphicBufferAllocEED1Ev
_ZN7android2spINS_19IGraphicBufferAllocEED2Ev
_ZN7android2spINS_19IGraphicBufferAllocEEaSERKS2_
_ZN7android2spINS_7IBinderEEC1EPS1_
_ZN7android2spINS_7IBinderEEC2EPS1_
_ZN7android2spINS_7IBinderEED1Ev
_ZN7android2spINS_7IBinderEED2Ev
_ZN7android7Surface17getSurfaceTextureEv
_ZN7android7Surface4initERKNS_2spINS_15ISurfaceTextureEEE
_ZN7android7SurfaceC1ERKNS_2spINS_15ISurfaceTextureEEE
_ZN7android7SurfaceC1ERKNS_6ParcelERKNS_2spINS_7IBinderEEE
_ZN7android7SurfaceC2ERKNS_2spINS_15ISurfaceTextureEEE
_ZN7android7SurfaceC2ERKNS_6ParcelERKNS_2spINS_7IBinderEEE
_ZN7android8ISurface11asInterfaceERKNS_2spINS_7IBinderEEE
_ZNK7android11BufferQueue4dumpERNS_7String8E
_ZNK7android11BufferQueue4dumpERNS_7String8EPKcPcj
_ZNK7android12SortedVectorINS_16key_value_pair_tINS_2wpINS_7IBinderEEENS2_INS_7SurfaceEEEEEE10do_compareEPKvSA_
_ZNK7android12SortedVectorINS_16key_value_pair_tINS_2wpINS_7IBinderEEENS2_INS_7SurfaceEEEEEE10do_destroyEPvj
_ZNK7android12SortedVectorINS_16key_value_pair_tINS_2wpINS_7IBinderEEENS2_INS_7SurfaceEEEEEE12do_constructEPvj
_ZNK7android12SortedVectorINS_16key_value_pair_tINS_2wpINS_7IBinderEEENS2_INS_7SurfaceEEEEEE15do_move_forwardEPvPKvj
_ZNK7android12SortedVectorINS_16key_value_pair_tINS_2wpINS_7IBinderEEENS2_INS_7SurfaceEEEEEE16do_move_backwardEPvPKvj
_ZNK7android12SortedVectorINS_16key_value_pair_tINS_2wpINS_7IBinderEEENS2_INS_7SurfaceEEEEEE7do_copyEPvPKvj
_ZNK7android12SortedVectorINS_16key_value_pair_tINS_2wpINS_7IBinderEEENS2_INS_7SurfaceEEEEEE8do_splatEPvPKvj
_ZNK7android14SurfaceTexture14getBufferQueueEv
_ZNK7android14SurfaceTexture14getCurrentCropEv
_ZNK7android14SurfaceTexture16getCurrentBufferEv
_ZNK7android14SurfaceTexture17isSynchronousModeEv
_ZNK7android14SurfaceTexture19getCurrentTransformEv
_ZNK7android14SurfaceTexture21getCurrentScalingModeEv
_ZNK7android14SurfaceTexture23getCurrentTextureTargetEv
_ZNK7android14SurfaceTexture4dumpERNS_7String8E
_ZNK7android14SurfaceTexture4dumpERNS_7String8EPKcPcj
_ZNK7android15ISurfaceTexture22getInterfaceDescriptorEv
_ZNK7android19IGraphicBufferAlloc22getInterfaceDescriptorEv
_ZNK7android20SurfaceTextureClient18getISurfaceTextureEv
_ZNK7android20SurfaceTextureClient23getSlotFromBufferLockedEP19ANativeWindowBuffer
_ZNK7android20SurfaceTextureClient5queryEiPi
_ZNK7android7Surface8asBinderEv
_ZTCN7android11BnInterfaceINS_13ISensorServerEEE0_NS_10IInterfaceE
_ZTCN7android11BnInterfaceINS_13ISensorServerEEE4_NS_7BBinderE
_ZTCN7android11BnInterfaceINS_13ISensorServerEEE4_NS_7IBinderE
_ZTCN7android11BnInterfaceINS_15ISurfaceTextureEEE0_NS_10IInterfaceE
_ZTCN7android11BnInterfaceINS_15ISurfaceTextureEEE0_S1_
_ZTCN7android11BnInterfaceINS_15ISurfaceTextureEEE4_NS_7BBinderE
_ZTCN7android11BnInterfaceINS_15ISurfaceTextureEEE4_NS_7IBinderE
_ZTCN7android11BnInterfaceINS_16ISensorHubServerEEE0_NS_10IInterfaceE
_ZTCN7android11BnInterfaceINS_16ISensorHubServerEEE4_NS_7BBinderE
_ZTCN7android11BnInterfaceINS_16ISensorHubServerEEE4_NS_7IBinderE
_ZTCN7android11BnInterfaceINS_16ISurfaceComposerEEE0_NS_10IInterfaceE
_ZTCN7android11BnInterfaceINS_16ISurfaceComposerEEE4_NS_7BBinderE
_ZTCN7android11BnInterfaceINS_16ISurfaceComposerEEE4_NS_7IBinderE
_ZTCN7android11BnInterfaceINS_19IGraphicBufferAllocEEE0_NS_10IInterfaceE
_ZTCN7android11BnInterfaceINS_19IGraphicBufferAllocEEE0_S1_
_ZTCN7android11BnInterfaceINS_19IGraphicBufferAllocEEE4_NS_7BBinderE
_ZTCN7android11BnInterfaceINS_19IGraphicBufferAllocEEE4_NS_7IBinderE
_ZTCN7android11BnInterfaceINS_22ISensorEventConnectionEEE0_NS_10IInterfaceE
_ZTCN7android11BnInterfaceINS_22ISensorEventConnectionEEE4_NS_7BBinderE
_ZTCN7android11BnInterfaceINS_22ISensorEventConnectionEEE4_NS_7IBinderE
_ZTCN7android11BnInterfaceINS_22ISurfaceComposerClientEEE0_NS_10IInterfaceE
_ZTCN7android11BnInterfaceINS_22ISurfaceComposerClientEEE4_NS_7BBinderE
_ZTCN7android11BnInterfaceINS_22ISurfaceComposerClientEEE4_NS_7IBinderE
_ZTCN7android11BnInterfaceINS_23IDisplayEventConnectionEEE0_NS_10IInterfaceE
_ZTCN7android11BnInterfaceINS_23IDisplayEventConnectionEEE4_NS_7BBinderE
_ZTCN7android11BnInterfaceINS_23IDisplayEventConnectionEEE4_NS_7IBinderE
_ZTCN7android11BnInterfaceINS_25ISensorHubEventConnectionEEE0_NS_10IInterfaceE
_ZTCN7android11BnInterfaceINS_25ISensorHubEventConnectionEEE4_NS_7BBinderE
_ZTCN7android11BnInterfaceINS_25ISensorHubEventConnectionEEE4_NS_7IBinderE
_ZTCN7android11BnInterfaceINS_8ISurfaceEEE0_NS_10IInterfaceE
_ZTCN7android11BnInterfaceINS_8ISurfaceEEE4_NS_7BBinderE
_ZTCN7android11BnInterfaceINS_8ISurfaceEEE4_NS_7IBinderE
_ZTCN7android11BpInterfaceINS_13ISensorServerEEE0_NS_10IInterfaceE
_ZTCN7android11BpInterfaceINS_13ISensorServerEEE4_NS_9BpRefBaseE
_ZTCN7android11BpInterfaceINS_15ISurfaceTextureEEE0_NS_10IInterfaceE
_ZTCN7android11BpInterfaceINS_15ISurfaceTextureEEE0_S1_
_ZTCN7android11BpInterfaceINS_15ISurfaceTextureEEE4_NS_9BpRefBaseE
_ZTCN7android11BpInterfaceINS_16ISensorHubServerEEE0_NS_10IInterfaceE
_ZTCN7android11BpInterfaceINS_16ISensorHubServerEEE4_NS_9BpRefBaseE
_ZTCN7android11BpInterfaceINS_16ISurfaceComposerEEE0_NS_10IInterfaceE
_ZTCN7android11BpInterfaceINS_16ISurfaceComposerEEE4_NS_9BpRefBaseE
_ZTCN7android11BpInterfaceINS_19IGraphicBufferAllocEEE0_NS_10IInterfaceE
_ZTCN7android11BpInterfaceINS_19IGraphicBufferAllocEEE0_S1_
_ZTCN7android11BpInterfaceINS_19IGraphicBufferAllocEEE4_NS_9BpRefBaseE
_ZTCN7android11BpInterfaceINS_22ISensorEventConnectionEEE0_NS_10IInterfaceE
_ZTCN7android11BpInterfaceINS_22ISensorEventConnectionEEE4_NS_9BpRefBaseE
_ZTCN7android11BpInterfaceINS_22ISurfaceComposerClientEEE0_NS_10IInterfaceE
_ZTCN7android11BpInterfaceINS_22ISurfaceComposerClientEEE4_NS_9BpRefBaseE
_ZTCN7android11BpInterfaceINS_23IDisplayEventConnectionEEE0_NS_10IInterfaceE
_ZTCN7android11BpInterfaceINS_23IDisplayEventConnectionEEE4_NS_9BpRefBaseE
_ZTCN7android11BpInterfaceINS_25ISensorHubEventConnectionEEE0_NS_10IInterfaceE
_ZTCN7android11BpInterfaceINS_25ISensorHubEventConnectionEEE4_NS_9BpRefBaseE
_ZTCN7android11BpInterfaceINS_8ISurfaceEEE0_NS_10IInterfaceE
_ZTCN7android11BpInterfaceINS_8ISurfaceEEE4_NS_9BpRefBaseE
_ZTCN7android11BufferQueueE0_NS_10IInterfaceE
_ZTCN7android11BufferQueueE0_NS_11BnInterfaceINS_15ISurfaceTextureEEE
_ZTCN7android11BufferQueueE0_NS_15ISurfaceTextureE
_ZTCN7android11BufferQueueE0_NS_16BnSurfaceTextureE
_ZTCN7android11BufferQueueE4_NS_7BBinderE
_ZTCN7android11BufferQueueE4_NS_7IBinderE
_ZTCN7android13ISensorServerE0_NS_10IInterfaceE
_ZTCN7android14BnSensorServerE0_NS_10IInterfaceE
_ZTCN7android14BnSensorServerE4_NS_7BBinderE
_ZTCN7android14BnSensorServerE4_NS_7IBinderE
_ZTCN7android14BpSensorServerE0_NS_10IInterfaceE
_ZTCN7android14BpSensorServerE4_NS_9BpRefBaseE
_ZTCN7android14SurfaceTextureE0_NS_11BufferQueue16ConsumerListenerE
_ZTCN7android15ISurfaceTextureE0_NS_10IInterfaceE
_ZTCN7android16BnSurfaceTextureE0_NS_10IInterfaceE
_ZTCN7android16BnSurfaceTextureE0_NS_11BnInterfaceINS_15ISurfaceTextureEEE
_ZTCN7android16BnSurfaceTextureE0_NS_15ISurfaceTextureE
_ZTCN7android16BnSurfaceTextureE4_NS_7BBinderE
_ZTCN7android16BnSurfaceTextureE4_NS_7IBinderE
_ZTCN7android16BpSurfaceTextureE0_NS_10IInterfaceE
_ZTCN7android16BpSurfaceTextureE0_NS_11BpInterfaceINS_15ISurfaceTextureEEE
_ZTCN7android16BpSurfaceTextureE0_NS_15ISurfaceTextureE
_ZTCN7android16BpSurfaceTextureE4_NS_9BpRefBaseE
_ZTCN7android16ISensorHubServerE0_NS_10IInterfaceE
_ZTCN7android16ISurfaceComposerE0_NS_10IInterfaceE
_ZTCN7android17BnSensorHubServerE0_NS_10IInterfaceE
_ZTCN7android17BnSensorHubServerE4_NS_7BBinderE
_ZTCN7android17BnSensorHubServerE4_NS_7IBinderE
_ZTCN7android17BnSurfaceComposerE0_NS_10IInterfaceE
_ZTCN7android17BnSurfaceComposerE4_NS_7BBinderE
_ZTCN7android17BnSurfaceComposerE4_NS_7IBinderE
_ZTCN7android17BpSensorHubServerE0_NS_10IInterfaceE
_ZTCN7android17BpSensorHubServerE4_NS_9BpRefBaseE
_ZTCN7android17BpSurfaceComposerE0_NS_10IInterfaceE
_ZTCN7android17BpSurfaceComposerE4_NS_9BpRefBaseE
_ZTCN7android19IGraphicBufferAllocE0_NS_10IInterfaceE
_ZTCN7android20BnGraphicBufferAllocE0_NS_10IInterfaceE
_ZTCN7android20BnGraphicBufferAllocE0_NS_11BnInterfaceINS_19IGraphicBufferAllocEEE
_ZTCN7android20BnGraphicBufferAllocE0_NS_19IGraphicBufferAllocE
_ZTCN7android20BnGraphicBufferAllocE4_NS_7BBinderE
_ZTCN7android20BnGraphicBufferAllocE4_NS_7IBinderE
_ZTCN7android20BpGraphicBufferAllocE0_NS_10IInterfaceE
_ZTCN7android20BpGraphicBufferAllocE0_NS_11BpInterfaceINS_19IGraphicBufferAllocEEE
_ZTCN7android20BpGraphicBufferAllocE0_NS_19IGraphicBufferAllocE
_ZTCN7android20BpGraphicBufferAllocE4_NS_9BpRefBaseE
_ZTCN7android22ISensorEventConnectionE0_NS_10IInterfaceE
_ZTCN7android22ISurfaceComposerClientE0_NS_10IInterfaceE
_ZTCN7android23BnSensorEventConnectionE0_NS_10IInterfaceE
_ZTCN7android23BnSensorEventConnectionE4_NS_7BBinderE
_ZTCN7android23BnSensorEventConnectionE4_NS_7IBinderE
_ZTCN7android23BnSurfaceComposerClientE0_NS_10IInterfaceE
_ZTCN7android23BnSurfaceComposerClientE4_NS_7BBinderE
_ZTCN7android23BnSurfaceComposerClientE4_NS_7IBinderE
_ZTCN7android23BpSensorEventConnectionE0_NS_10IInterfaceE
_ZTCN7android23BpSensorEventConnectionE4_NS_9BpRefBaseE
_ZTCN7android23BpSurfaceComposerClientE0_NS_10IInterfaceE
_ZTCN7android23BpSurfaceComposerClientE4_NS_9BpRefBaseE
_ZTCN7android23IDisplayEventConnectionE0_NS_10IInterfaceE
_ZTCN7android24BnDisplayEventConnectionE0_NS_10IInterfaceE
_ZTCN7android24BnDisplayEventConnectionE4_NS_7BBinderE
_ZTCN7android24BnDisplayEventConnectionE4_NS_7IBinderE
_ZTCN7android24BpDisplayEventConnectionE0_NS_10IInterfaceE
_ZTCN7android24BpDisplayEventConnectionE4_NS_9BpRefBaseE
_ZTCN7android25ISensorHubEventConnectionE0_NS_10IInterfaceE
_ZTCN7android26BnSensorHubEventConnectionE0_NS_10IInterfaceE
_ZTCN7android26BnSensorHubEventConnectionE4_NS_7BBinderE
_ZTCN7android26BnSensorHubEventConnectionE4_NS_7IBinderE
_ZTCN7android26BpSensorHubEventConnectionE0_NS_10IInterfaceE
_ZTCN7android26BpSensorHubEventConnectionE4_NS_9BpRefBaseE
_ZTCN7android8ISurfaceE0_NS_10IInterfaceE
_ZTCN7android9BnSurfaceE0_NS_10IInterfaceE
_ZTCN7android9BnSurfaceE4_NS_7BBinderE
_ZTCN7android9BnSurfaceE4_NS_7IBinderE
_ZTCN7android9BpSurfaceE0_NS_10IInterfaceE
_ZTCN7android9BpSurfaceE4_NS_9BpRefBaseE
_ZTTN7android11BnInterfaceINS_15ISurfaceTextureEEE
_ZTTN7android11BnInterfaceINS_19IGraphicBufferAllocEEE
_ZTTN7android11BpInterfaceINS_15ISurfaceTextureEEE
_ZTTN7android11BpInterfaceINS_19IGraphicBufferAllocEEE
_ZTTN7android14SurfaceTextureE
_ZTTN7android15ISurfaceTextureE
_ZTTN7android16BnSurfaceTextureE
_ZTTN7android16BpSurfaceTextureE
_ZTTN7android19IGraphicBufferAllocE
_ZTTN7android20BnGraphicBufferAllocE
_ZTTN7android20BpGraphicBufferAllocE
_ZTTN7android7IBinder14DeathRecipientE
_ZTVN7android11BnInterfaceINS_15ISurfaceTextureEEE
_ZTVN7android11BnInterfaceINS_19IGraphicBufferAllocEEE
_ZTVN7android11BpInterfaceINS_15ISurfaceTextureEEE
_ZTVN7android11BpInterfaceINS_19IGraphicBufferAllocEEE
_ZTVN7android12SortedVectorINS_16key_value_pair_tINS_2wpINS_7IBinderEEENS2_INS_7SurfaceEEEEEEE
_ZTVN7android14SurfaceTextureE
_ZTVN7android15ISurfaceTextureE
_ZTVN7android16BnSurfaceTextureE
_ZTVN7android16BpSurfaceTextureE
_ZTVN7android17ANativeObjectBaseI13ANativeWindowNS_20SurfaceTextureClientENS_7RefBaseEEE
_ZTVN7android19IGraphicBufferAllocE
_ZTVN7android20BnGraphicBufferAllocE
_ZTVN7android20BpGraphicBufferAllocE
_ZTVN7android20SurfaceTextureClientE
_ZTVN7android7IBinder14DeathRecipientE
_ZThn4_N7android16BnSurfaceTexture10onTransactEjRKNS_6ParcelEPS1_j
_ZThn4_N7android20BnGraphicBufferAlloc10onTransactEjRKNS_6ParcelEPS1_j
_ZTv0_n12_N7android14SurfaceTextureD0Ev
_ZTv0_n12_N7android14SurfaceTextureD1Ev
_ZTv0_n12_N7android15ISurfaceTextureD0Ev
_ZTv0_n12_N7android15ISurfaceTextureD1Ev
_ZTv0_n12_N7android19IGraphicBufferAllocD0Ev
_ZTv0_n12_N7android19IGraphicBufferAllocD1Ev
