FLAC__ChannelAssignmentString
FLAC__EntropyCodingMethodTypeString
FLAC__FrameNumberTypeString
FLAC__MetadataTypeString
FLAC__StreamDecoderErrorStatusString
FLAC__StreamDecoderInitStatusString
FLAC__StreamDecoderLengthStatusString
FLAC__StreamDecoderReadStatusString
FLAC__StreamDecoderSeekStatusString
FLAC__StreamDecoderStateString
FLAC__StreamDecoderTellStatusString
FLAC__StreamDecoderWriteStatusString
FLAC__StreamMetadata_Picture_TypeString
FLAC__SubframeTypeString
_ZN7android10Compare_EQINS_10MediaCodec5StateES2_EENS_7AStringERKT_RKT0_
_ZN7android10Compare_EQIiiEENS_7AStringERKT_RKT0_
_ZN7android10Compare_EQIjjEENS_7AStringERKT_RKT0_
_ZN7android10Compare_EQIljEENS_7AStringERKT_RKT0_
_ZN7android10Compare_EQImmEENS_7AStringERKT_RKT0_
_ZN7android10Compare_GEIjjEENS_7AStringERKT_RKT0_
_ZN7android10Compare_GEIxxEENS_7AStringERKT_RKT0_
_ZN7android10Compare_GTIjjEENS_7AStringERKT_RKT0_
_ZN7android10Compare_LEIjjEENS_7AStringERKT_RKT0_
_ZN7android10Compare_LTIjiEENS_7AStringERKT_RKT0_
_ZN7android10Compare_NEIjjEENS_7AStringERKT_RKT0_
_ZN7android10DataSource13CreateFromURIEPKcPKNS_11KeyedVectorINS_7String8ES4_EE
_ZN7android10DataSource15RegisterSnifferEPFbRKNS_2spIS0_EEPNS_7String8EPfPNS1_INS_8AMessageEEEE
_ZN7android10DataSource5sniffEPNS_7String8EPfPNS_2spINS_8AMessageEEE
_ZN7android10MediaCodec16queueInputBufferEjjjxjPNS_7AStringE
_ZN7android10MediaCodec22queueSecureInputBufferEjjPKNS_12CryptoPlugin9SubSampleEjPKhS6_NS1_4ModeExjPNS_7AStringE
_ZN7android10SfDelegate18initiateConnectionEPKcPKNS_11KeyedVectorINS_7String8ES4_EEx
_ZN7android10SfDelegate20onInitiateConnectionERK4GURLPKNS_11KeyedVectorINS_7String8ES5_EEx
_ZN7android10SfDelegate27OnInitiateConnectionWrapperEPS0_4GURLPKNS_11KeyedVectorINS_7String8ES4_EEx
_ZN7android10SniffMPEG4ERKNS_2spINS_10DataSourceEEEPNS_7String8EPfPNS0_INS_8AMessageEEE
_ZN7android11BnInterfaceINS_12IOMXObserverEE10onAsBinderEv
_ZN7android11BnInterfaceINS_29ICameraRecordingProxyListenerEE10onAsBinderEv
_ZN7android11LiveSession16setRetrialPolicyEPKcPKNS_11KeyedVectorINS_7String8ES4_EEixx
_ZN7android11LiveSession7connectEPKcPKNS_11KeyedVectorINS_7String8ES4_EE
_ZN7android11MPEG4Writer12writeCStringEPKc
_ZN7android11MPEG4Writer4dumpEiRKNS_6VectorINS_8String16EEE
_ZN7android11MediaBufferC1ERKNS_2spINS_13GraphicBufferEEE
_ZN7android11MediaBufferC2ERKNS_2spINS_13GraphicBufferEEE
_ZN7android11SUniSnifferERKNS_2spINS_10DataSourceEEEPNS_7String8EPfPNS0_INS_8AMessageEEE
_ZN7android12CameraSource13DeathNotifier10binderDiedERKNS_2wpINS_7IBinderEEE
_ZN7android12CameraSource13ProxyListener21dataCallbackTimestampExiRKNS_2spINS_7IMemoryEEE
_ZN7android12CameraSource21dataCallbackTimestampExiRKNS_2spINS_7IMemoryEEE
_ZN7android12CameraSource21releaseRecordingFrameERKNS_2spINS_7IMemoryEEE
_ZN7android12CameraSource24releaseOneRecordingFrameERKNS_2spINS_7IMemoryEEE
_ZN7android12SniffMPEG2PSERKNS_2spINS_10DataSourceEEEPNS_7String8EPfPNS0_INS_8AMessageEEE
_ZN7android12SniffMPEG2TSERKNS_2spINS_10DataSourceEEEPNS_7String8EPfPNS0_INS_8AMessageEEE
_ZN7android13AwesomePlayer13setDataSourceEPKcPKNS_11KeyedVectorINS_7String8ES4_EE
_ZN7android13AwesomePlayer15setDataSource_lEPKcPKNS_11KeyedVectorINS_7String8ES4_EE
_ZN7android13MPEG2TSWriter4dumpEiRKNS_6VectorINS_8String16EEE
_ZN7android13SniffMatroskaERKNS_2spINS_10DataSourceEEEPNS_7String8EPfPNS0_INS_8AMessageEEE
_ZN7android13getUTF8StringEPKcS1_i
_ZN7android15NuCachedSource226RemoveCacheSpecificHeadersEPNS_11KeyedVectorINS_7String8ES2_EEPS2_Pb
_ZN7android15NuCachedSource227updateCacheParamsFromStringEPKc
_ZN7android16NuMediaExtractor13setDataSourceEPKcPKNS_11KeyedVectorINS_7String8ES4_EE
_ZN7android18AVCProfileToStringEh
_ZN7android20CameraSourceListener17postDataTimestampExiRKNS_2spINS_7IMemoryEEE
_ZN7android20CameraSourceListener8postDataEiRKNS_2spINS_7IMemoryEEEP21camera_frame_metadata
_ZN7android21CameraSourceTimeLapse17createIMemoryCopyERKNS_2spINS_7IMemoryEEE
_ZN7android21CameraSourceTimeLapse21dataCallbackTimestampExiRKNS_2spINS_7IMemoryEEE
_ZN7android22ChromiumHTTPDataSource7connectEPKcPKNS_11KeyedVectorINS_7String8ES4_EEx
_ZN7android22ChromiumHTTPDataSource9connect_lEPKcPKNS_11KeyedVectorINS_7String8ES4_EEx
_ZN7android22TimedTextOUTBANDSource33extractAndAppendLocalDescriptionsExRKNS_7AStringEPNS_6ParcelE
_ZN7android22TimedTextOUTBANDSource7getTextEPKNS_11MediaSource11ReadOptionsEPNS_7AStringEPxS7_
_ZN7android28StagefrightMetadataRetriever13setDataSourceEPKcPKNS_11KeyedVectorINS_7String8ES4_EE
_ZN7android2spINS_13GraphicBufferEED1Ev
_ZN7android2spINS_13GraphicBufferEED2Ev
_ZN7android2spINS_7IBinderEED1Ev
_ZN7android2spINS_7IBinderEED2Ev
_ZN7android2spINS_7IMemoryEED1Ev
_ZN7android2spINS_7IMemoryEED2Ev
_ZN7android6MuxOMX12allocateNodeEPKcRKNS_2spINS_12IOMXObserverEEEPPv
_ZN7android6MuxOMX16useGraphicBufferEPvmRKNS_2spINS_13GraphicBufferEEEPS1_
_ZN7android6MuxOMX20enableGraphicBuffersEPvm8OMX_BOOL
_ZN7android6MuxOMX21getGraphicBufferUsageEPvmPm
_ZN7android6MuxOMX24allocateBufferWithBackupEPvmRKNS_2spINS_7IMemoryEEEPS1_
_ZN7android6MuxOMX9useBufferEPvmRKNS_2spINS_7IMemoryEEEPS1_
_ZN7android8MetaData10setCStringEjPKc
_ZN7android8MetaData11findCStringEjPPKc
_ZN7android8OMXCodec18findMatchingCodecsEPKcbS2_jPNS_6VectorINS_7String8EEEPNS3_IjEE
_ZN7android8SniffAACERKNS_2spINS_10DataSourceEEEPNS_7String8EPfPNS0_INS_8AMessageEEE
_ZN7android8SniffAMRERKNS_2spINS_10DataSourceEEEPNS_7String8EPfPNS0_INS_8AMessageEEE
_ZN7android8SniffDRMERKNS_2spINS_10DataSourceEEEPNS_7String8EPfPNS0_INS_8AMessageEEE
_ZN7android8SniffMP3ERKNS_2spINS_10DataSourceEEEPNS_7String8EPfPNS0_INS_8AMessageEEE
_ZN7android8SniffOggERKNS_2spINS_10DataSourceEEEPNS_7String8EPfPNS0_INS_8AMessageEEE
_ZN7android8SniffWAVERKNS_2spINS_10DataSourceEEEPNS_7String8EPfPNS0_INS_8AMessageEEE
_ZN7android8SniffWVMERKNS_2spINS_10DataSourceEEEPNS_7String8EPfPNS0_INS_8AMessageEEE
_ZN7android9M3UParser13parseMetaDataERKNS_7AStringEPNS_2spINS_8AMessageEEEPKc
_ZN7android9M3UParser14parseByteRangeERKNS_7AStringEyPyS4_
_ZN7android9M3UParser14parseStreamInfERKNS_7AStringEPNS_2spINS_8AMessageEEE
_ZN7android9M3UParser15parseCipherInfoERKNS_7AStringEPNS_2spINS_8AMessageEEES3_
_ZN7android9M3UParser21parseMetaDataDurationERKNS_7AStringEPNS_2spINS_8AMessageEEEPKc
_ZN7android9M3UParser6itemAtEjPNS_7AStringEPNS_2spINS_8AMessageEEE
_ZN7android9OMXClient10disconnectEv
_ZN7android9OMXClient7connectEv
_ZN7android9OMXClientC1Ev
_ZN7android9OMXClientC2Ev
_ZN7android9SniffFLACERKNS_2spINS_10DataSourceEEEPNS_7String8EPfPNS0_INS_8AMessageEEE
_ZN7logging17MakeCheckOpStringIN7android22ChromiumHTTPDataSource5StateES3_EEPSsRKT_RKT0_PKc
_ZN7logging17MakeCheckOpStringIjjEEPSsRKT_RKT0_PKc
_ZN9mkvparser17UnserializeStringEPNS_10IMkvReaderExxRPc
_ZNK7android11MPEG4Writer5Track4dumpEiRKNS_6VectorINS_8String16EEE
_ZNK7android12SortedVectorINS_16key_value_pair_tINS_7AStringENS_2spINS_7ABufferEEEEEE10do_compareEPKvS9_
_ZNK7android12SortedVectorINS_16key_value_pair_tINS_7AStringENS_2spINS_7ABufferEEEEEE10do_destroyEPvj
_ZNK7android12SortedVectorINS_16key_value_pair_tINS_7AStringENS_2spINS_7ABufferEEEEEE12do_constructEPvj
_ZNK7android12SortedVectorINS_16key_value_pair_tINS_7AStringENS_2spINS_7ABufferEEEEEE15do_move_forwardEPvPKvj
_ZNK7android12SortedVectorINS_16key_value_pair_tINS_7AStringENS_2spINS_7ABufferEEEEEE16do_move_backwardEPvPKvj
_ZNK7android12SortedVectorINS_16key_value_pair_tINS_7AStringENS_2spINS_7ABufferEEEEEE7do_copyEPvPKvj
_ZNK7android12SortedVectorINS_16key_value_pair_tINS_7AStringENS_2spINS_7ABufferEEEEEE8do_splatEPvPKvj
_ZNK7android12SortedVectorINS_16key_value_pair_tINS_7AStringEjEEE10do_compareEPKvS6_
_ZNK7android12SortedVectorINS_16key_value_pair_tINS_7AStringEjEEE10do_destroyEPvj
_ZNK7android12SortedVectorINS_16key_value_pair_tINS_7AStringEjEEE12do_constructEPvj
_ZNK7android12SortedVectorINS_16key_value_pair_tINS_7AStringEjEEE15do_move_forwardEPvPKvj
_ZNK7android12SortedVectorINS_16key_value_pair_tINS_7AStringEjEEE16do_move_backwardEPvPKvj
_ZNK7android12SortedVectorINS_16key_value_pair_tINS_7AStringEjEEE7do_copyEPvPKvj
_ZNK7android12SortedVectorINS_16key_value_pair_tINS_7AStringEjEEE8do_splatEPvPKvj
_ZNK7android12SortedVectorINS_16key_value_pair_tINS_7String8ES2_EEE10do_compareEPKvS6_
_ZNK7android12SortedVectorINS_16key_value_pair_tINS_7String8ES2_EEE10do_destroyEPvj
_ZNK7android12SortedVectorINS_16key_value_pair_tINS_7String8ES2_EEE12do_constructEPvj
_ZNK7android12SortedVectorINS_16key_value_pair_tINS_7String8ES2_EEE15do_move_forwardEPvPKvj
_ZNK7android12SortedVectorINS_16key_value_pair_tINS_7String8ES2_EEE16do_move_backwardEPvPKvj
_ZNK7android12SortedVectorINS_16key_value_pair_tINS_7String8ES2_EEE7do_copyEPvPKvj
_ZNK7android12SortedVectorINS_16key_value_pair_tINS_7String8ES2_EEE8do_splatEPvPKvj
_ZNK7android12SortedVectorINS_16key_value_pair_tIiNS_7String8EEEE10do_compareEPKvS6_
_ZNK7android12SortedVectorINS_16key_value_pair_tIiNS_7String8EEEE10do_destroyEPvj
_ZNK7android12SortedVectorINS_16key_value_pair_tIiNS_7String8EEEE12do_constructEPvj
_ZNK7android12SortedVectorINS_16key_value_pair_tIiNS_7String8EEEE15do_move_forwardEPvPKvj
_ZNK7android12SortedVectorINS_16key_value_pair_tIiNS_7String8EEEE16do_move_backwardEPvPKvj
_ZNK7android12SortedVectorINS_16key_value_pair_tIiNS_7String8EEEE7do_copyEPvPKvj
_ZNK7android12SortedVectorINS_16key_value_pair_tIiNS_7String8EEEE8do_splatEPvPKvj
_ZNK7android13AwesomePlayer4dumpEiRKNS_6VectorINS_8String16EEE
_ZNK7android14MediaCodecList17getSupportedTypesEjPNS_6VectorINS_7AStringEEE
_ZNK7android18SurfaceMediaSource4dumpERNS_7String8E
_ZNK7android18SurfaceMediaSource4dumpERNS_7String8EPKcPcj
_ZNK7android3ID311getAlbumArtEPjPNS_7String8E
_ZNK7android3ID38Iterator5getIDEPNS_7String8E
_ZNK7android3ID38Iterator9getStringEPNS_7String8ES3_
_ZNK7android3ID38Iterator9getstringEPNS_7String8Eb
_ZNK7android6VectorINS_2spINS_13GraphicBufferEEEE10do_destroyEPvj
_ZNK7android6VectorINS_2spINS_13GraphicBufferEEEE12do_constructEPvj
_ZNK7android6VectorINS_2spINS_13GraphicBufferEEEE15do_move_forwardEPvPKvj
_ZNK7android6VectorINS_2spINS_13GraphicBufferEEEE16do_move_backwardEPvPKvj
_ZNK7android6VectorINS_2spINS_13GraphicBufferEEEE7do_copyEPvPKvj
_ZNK7android6VectorINS_2spINS_13GraphicBufferEEEE8do_splatEPvPKvj
_ZNK7android6VectorINS_2spINS_7IMemoryEEEE10do_destroyEPvj
_ZNK7android6VectorINS_2spINS_7IMemoryEEEE12do_constructEPvj
_ZNK7android6VectorINS_2spINS_7IMemoryEEEE15do_move_forwardEPvPKvj
_ZNK7android6VectorINS_2spINS_7IMemoryEEEE16do_move_backwardEPvPKvj
_ZNK7android6VectorINS_2spINS_7IMemoryEEEE7do_copyEPvPKvj
_ZNK7android6VectorINS_2spINS_7IMemoryEEEE8do_splatEPvPKvj
_ZNK7android6VectorINS_7String8EE10do_destroyEPvj
_ZNK7android6VectorINS_7String8EE12do_constructEPvj
_ZNK7android6VectorINS_7String8EE15do_move_forwardEPvPKvj
_ZNK7android6VectorINS_7String8EE16do_move_backwardEPvPKvj
_ZNK7android6VectorINS_7String8EE7do_copyEPvPKvj
_ZNK7android6VectorINS_7String8EE8do_splatEPvPKvj
_ZNK7android8MetaData10typed_data8asStringEv
_ZNSt4priv12_String_baseIcSaIcEE17_M_allocate_blockEj
_ZTCN7android11BnInterfaceINS_12IOMXObserverEEE0_NS_10IInterfaceE
_ZTCN7android11BnInterfaceINS_12IOMXObserverEEE0_S1_
_ZTCN7android11BnInterfaceINS_12IOMXObserverEEE4_NS_7BBinderE
_ZTCN7android11BnInterfaceINS_12IOMXObserverEEE4_NS_7IBinderE
_ZTCN7android11BnInterfaceINS_29ICameraRecordingProxyListenerEEE0_NS_10IInterfaceE
_ZTCN7android11BnInterfaceINS_29ICameraRecordingProxyListenerEEE4_NS_7BBinderE
_ZTCN7android11BnInterfaceINS_29ICameraRecordingProxyListenerEEE4_NS_7IBinderE
_ZTCN7android12CameraSource13DeathNotifierE0_NS_7IBinder14DeathRecipientE
_ZTCN7android12CameraSource13ProxyListenerE0_NS_10IInterfaceE
_ZTCN7android12CameraSource13ProxyListenerE4_NS_7BBinderE
_ZTCN7android12CameraSource13ProxyListenerE4_NS_7IBinderE
_ZTCN7android13CodecObserverE0_NS_10IInterfaceE
_ZTCN7android13CodecObserverE0_NS_11BnInterfaceINS_12IOMXObserverEEE
_ZTCN7android13CodecObserverE0_NS_12IOMXObserverE
_ZTCN7android13CodecObserverE0_NS_13BnOMXObserverE
_ZTCN7android13CodecObserverE4_NS_7BBinderE
_ZTCN7android13CodecObserverE4_NS_7IBinderE
_ZTCN7android16OMXCodecObserverE0_NS_10IInterfaceE
_ZTCN7android16OMXCodecObserverE0_NS_11BnInterfaceINS_12IOMXObserverEEE
_ZTCN7android16OMXCodecObserverE0_NS_12IOMXObserverE
_ZTCN7android16OMXCodecObserverE0_NS_13BnOMXObserverE
_ZTCN7android16OMXCodecObserverE4_NS_7BBinderE
_ZTCN7android16OMXCodecObserverE4_NS_7IBinderE
_ZTCN7android6MuxOMXE0_NS_10IInterfaceE
_ZTTN7android11BnInterfaceINS_12IOMXObserverEEE
_ZTTN7android7IBinder14DeathRecipientE
_ZTV16RunnableFunctionIPFvPN7android10SfDelegateE4GURLPKNS0_11KeyedVectorINS0_7String8ES5_EExE6Tuple4IS2_S3_S8_xEE
_ZTVN7android11BnInterfaceINS_12IOMXObserverEEE
_ZTVN7android12SortedVectorINS_16key_value_pair_tINS_7AStringENS_2spINS_7ABufferEEEEEEE
_ZTVN7android12SortedVectorINS_16key_value_pair_tINS_7AStringEjEEEE
_ZTVN7android12SortedVectorINS_16key_value_pair_tINS_7String8ES2_EEEE
_ZTVN7android12SortedVectorINS_16key_value_pair_tIiNS_7String8EEEEE
_ZTVN7android14ReferenceMover19StrongReferenceCastINS_7IMemoryEEE
_ZTVN7android4ListINS_2spINS_7IMemoryEEEEE
_ZTVN7android4ListIPFbRKNS_2spINS_10DataSourceEEEPNS_7String8EPfPNS1_INS_8AMessageEEEEEE
_ZTVN7android6VectorINS_2spINS_13GraphicBufferEEEEE
_ZTVN7android6VectorINS_2spINS_7IMemoryEEEEE
_ZTVN7android6VectorINS_7String8EEE
_ZTVN7android7IBinder14DeathRecipientE
